target datalayout = "e-m:e-p270:32:32-p271:32:32-p272:64:64-i64:64-i128:128-f80:128-n8:16:32:64-S128"
target triple = "x86_64-pc-linux-gnu"

; Function Attrs: mustprogress uwtable
define hidden void @_ZNK3p2t5Sweep18RotateTrianglePairERNS_8TriangleERNS_5PointES2_S4_(ptr noundef nonnull align 8 dereferenceable(24) %0, ptr noundef nonnull align 8 dereferenceable(57) %1, ptr noundef nonnull align 8 dereferenceable(40) %2, ptr noundef nonnull align 8 dereferenceable(57) %3, ptr noundef nonnull align 8 dereferenceable(40) %4) #0 align 2 {
  %6 = alloca ptr, align 8
  %7 = alloca ptr, align 8
  %8 = alloca ptr, align 8
  %9 = alloca ptr, align 8
  %10 = alloca ptr, align 8
  %11 = alloca ptr, align 8
  %12 = alloca ptr, align 8
  %13 = alloca ptr, align 8
  %14 = alloca ptr, align 8
  %15 = alloca i8, align 1
  %16 = alloca i8, align 1
  %17 = alloca i8, align 1
  %18 = alloca i8, align 1
  %19 = alloca i8, align 1
  %20 = alloca i8, align 1
  %21 = alloca i8, align 1
  %22 = alloca i8, align 1
  store ptr %0, ptr %6, align 8
  store ptr %1, ptr %7, align 8
  store ptr %2, ptr %8, align 8
  store ptr %3, ptr %9, align 8
  store ptr %4, ptr %10, align 8
  call void @llvm.lifetime.start.p0(i64 8, ptr %11) #14
  call void @llvm.lifetime.start.p0(i64 8, ptr %12) #14
  call void @llvm.lifetime.start.p0(i64 8, ptr %13) #14
  call void @llvm.lifetime.start.p0(i64 8, ptr %14) #14
  %23 = load ptr, ptr %7, align 8
  %24 = load ptr, ptr %8, align 8
  %25 = call noundef ptr @_ZN3p2t8Triangle11NeighborCCWERKNS_5PointE(ptr noundef nonnull align 8 dereferenceable(57) %23, ptr noundef nonnull align 8 dereferenceable(40) %24)
  store ptr %25, ptr %11, align 8
  %26 = load ptr, ptr %7, align 8
  %27 = load ptr, ptr %8, align 8
  %28 = call noundef ptr @_ZN3p2t8Triangle10NeighborCWERKNS_5PointE(ptr noundef nonnull align 8 dereferenceable(57) %26, ptr noundef nonnull align 8 dereferenceable(40) %27)
  store ptr %28, ptr %12, align 8
  %29 = load ptr, ptr %9, align 8
  %30 = load ptr, ptr %10, align 8
  %31 = call noundef ptr @_ZN3p2t8Triangle11NeighborCCWERKNS_5PointE(ptr noundef nonnull align 8 dereferenceable(57) %29, ptr noundef nonnull align 8 dereferenceable(40) %30)
  store ptr %31, ptr %13, align 8
  %32 = load ptr, ptr %9, align 8
  %33 = load ptr, ptr %10, align 8
  %34 = call noundef ptr @_ZN3p2t8Triangle10NeighborCWERKNS_5PointE(ptr noundef nonnull align 8 dereferenceable(57) %32, ptr noundef nonnull align 8 dereferenceable(40) %33)
  store ptr %34, ptr %14, align 8
  call void @llvm.lifetime.start.p0(i64 1, ptr %15) #14
  call void @llvm.lifetime.start.p0(i64 1, ptr %16) #14
  call void @llvm.lifetime.start.p0(i64 1, ptr %17) #14
  call void @llvm.lifetime.start.p0(i64 1, ptr %18) #14
  %35 = load ptr, ptr %7, align 8
  %36 = load ptr, ptr %8, align 8
  %37 = call noundef zeroext i1 @_ZN3p2t8Triangle21GetConstrainedEdgeCCWERKNS_5PointE(ptr noundef nonnull align 8 dereferenceable(57) %35, ptr noundef nonnull align 8 dereferenceable(40) %36)
  %38 = zext i1 %37 to i8
  store i8 %38, ptr %15, align 1
  %39 = load ptr, ptr %7, align 8
  %40 = load ptr, ptr %8, align 8
  %41 = call noundef zeroext i1 @_ZN3p2t8Triangle20GetConstrainedEdgeCWERKNS_5PointE(ptr noundef nonnull align 8 dereferenceable(57) %39, ptr noundef nonnull align 8 dereferenceable(40) %40)
  %42 = zext i1 %41 to i8
  store i8 %42, ptr %16, align 1
  %43 = load ptr, ptr %9, align 8
  %44 = load ptr, ptr %10, align 8
  %45 = call noundef zeroext i1 @_ZN3p2t8Triangle21GetConstrainedEdgeCCWERKNS_5PointE(ptr noundef nonnull align 8 dereferenceable(57) %43, ptr noundef nonnull align 8 dereferenceable(40) %44)
  %46 = zext i1 %45 to i8
  store i8 %46, ptr %17, align 1
  %47 = load ptr, ptr %9, align 8
  %48 = load ptr, ptr %10, align 8
  %49 = call noundef zeroext i1 @_ZN3p2t8Triangle20GetConstrainedEdgeCWERKNS_5PointE(ptr noundef nonnull align 8 dereferenceable(57) %47, ptr noundef nonnull align 8 dereferenceable(40) %48)
  %50 = zext i1 %49 to i8
  store i8 %50, ptr %18, align 1
  call void @llvm.lifetime.start.p0(i64 1, ptr %19) #14
  call void @llvm.lifetime.start.p0(i64 1, ptr %20) #14
  call void @llvm.lifetime.start.p0(i64 1, ptr %21) #14
  call void @llvm.lifetime.start.p0(i64 1, ptr %22) #14
  %51 = load ptr, ptr %7, align 8
  %52 = load ptr, ptr %8, align 8
  %53 = call noundef zeroext i1 @_ZN3p2t8Triangle17GetDelunayEdgeCCWERKNS_5PointE(ptr noundef nonnull align 8 dereferenceable(57) %51, ptr noundef nonnull align 8 dereferenceable(40) %52)
  %54 = zext i1 %53 to i8
  store i8 %54, ptr %19, align 1
  %55 = load ptr, ptr %7, align 8
  %56 = load ptr, ptr %8, align 8
  %57 = call noundef zeroext i1 @_ZN3p2t8Triangle16GetDelunayEdgeCWERKNS_5PointE(ptr noundef nonnull align 8 dereferenceable(57) %55, ptr noundef nonnull align 8 dereferenceable(40) %56)
  %58 = zext i1 %57 to i8
  store i8 %58, ptr %20, align 1
  %59 = load ptr, ptr %9, align 8
  %60 = load ptr, ptr %10, align 8
  %61 = call noundef zeroext i1 @_ZN3p2t8Triangle17GetDelunayEdgeCCWERKNS_5PointE(ptr noundef nonnull align 8 dereferenceable(57) %59, ptr noundef nonnull align 8 dereferenceable(40) %60)
  %62 = zext i1 %61 to i8
  store i8 %62, ptr %21, align 1
  %63 = load ptr, ptr %9, align 8
  %64 = load ptr, ptr %10, align 8
  %65 = call noundef zeroext i1 @_ZN3p2t8Triangle16GetDelunayEdgeCWERKNS_5PointE(ptr noundef nonnull align 8 dereferenceable(57) %63, ptr noundef nonnull align 8 dereferenceable(40) %64)
  %66 = zext i1 %65 to i8
  store i8 %66, ptr %22, align 1
  %67 = load ptr, ptr %7, align 8
  %68 = load ptr, ptr %8, align 8
  %69 = load ptr, ptr %10, align 8
  call void @_ZN3p2t8Triangle8LegalizeERNS_5PointES2_(ptr noundef nonnull align 8 dereferenceable(57) %67, ptr noundef nonnull align 8 dereferenceable(40) %68, ptr noundef nonnull align 8 dereferenceable(40) %69)
  %70 = load ptr, ptr %9, align 8
  %71 = load ptr, ptr %10, align 8
  %72 = load ptr, ptr %8, align 8
  call void @_ZN3p2t8Triangle8LegalizeERNS_5PointES2_(ptr noundef nonnull align 8 dereferenceable(57) %70, ptr noundef nonnull align 8 dereferenceable(40) %71, ptr noundef nonnull align 8 dereferenceable(40) %72)
  %73 = load ptr, ptr %9, align 8
  %74 = load ptr, ptr %8, align 8
  %75 = load i8, ptr %19, align 1, !range !8, !noundef !9
  %76 = trunc i8 %75 to i1
  call void @_ZN3p2t8Triangle17SetDelunayEdgeCCWERKNS_5PointEb(ptr noundef nonnull align 8 dereferenceable(57) %73, ptr noundef nonnull align 8 dereferenceable(40) %74, i1 noundef zeroext %76)
  %77 = load ptr, ptr %7, align 8
  %78 = load ptr, ptr %8, align 8
  %79 = load i8, ptr %20, align 1, !range !8, !noundef !9
  %80 = trunc i8 %79 to i1
  call void @_ZN3p2t8Triangle16SetDelunayEdgeCWERKNS_5PointEb(ptr noundef nonnull align 8 dereferenceable(57) %77, ptr noundef nonnull align 8 dereferenceable(40) %78, i1 noundef zeroext %80)
  %81 = load ptr, ptr %7, align 8
  %82 = load ptr, ptr %10, align 8
  %83 = load i8, ptr %21, align 1, !range !8, !noundef !9
  %84 = trunc i8 %83 to i1
  call void @_ZN3p2t8Triangle17SetDelunayEdgeCCWERKNS_5PointEb(ptr noundef nonnull align 8 dereferenceable(57) %81, ptr noundef nonnull align 8 dereferenceable(40) %82, i1 noundef zeroext %84)
  %85 = load ptr, ptr %9, align 8
  %86 = load ptr, ptr %10, align 8
  %87 = load i8, ptr %22, align 1, !range !8, !noundef !9
  %88 = trunc i8 %87 to i1
  call void @_ZN3p2t8Triangle16SetDelunayEdgeCWERKNS_5PointEb(ptr noundef nonnull align 8 dereferenceable(57) %85, ptr noundef nonnull align 8 dereferenceable(40) %86, i1 noundef zeroext %88)
  %89 = load ptr, ptr %9, align 8
  %90 = load ptr, ptr %8, align 8
  %91 = load i8, ptr %15, align 1, !range !8, !noundef !9
  %92 = trunc i8 %91 to i1
  call void @_ZN3p2t8Triangle21SetConstrainedEdgeCCWERKNS_5PointEb(ptr noundef nonnull align 8 dereferenceable(57) %89, ptr noundef nonnull align 8 dereferenceable(40) %90, i1 noundef zeroext %92)
  %93 = load ptr, ptr %7, align 8
  %94 = load ptr, ptr %8, align 8
  %95 = load i8, ptr %16, align 1, !range !8, !noundef !9
  %96 = trunc i8 %95 to i1
  call void @_ZN3p2t8Triangle20SetConstrainedEdgeCWERKNS_5PointEb(ptr noundef nonnull align 8 dereferenceable(57) %93, ptr noundef nonnull align 8 dereferenceable(40) %94, i1 noundef zeroext %96)
  %97 = load ptr, ptr %7, align 8
  %98 = load ptr, ptr %10, align 8
  %99 = load i8, ptr %17, align 1, !range !8, !noundef !9
  %100 = trunc i8 %99 to i1
  call void @_ZN3p2t8Triangle21SetConstrainedEdgeCCWERKNS_5PointEb(ptr noundef nonnull align 8 dereferenceable(57) %97, ptr noundef nonnull align 8 dereferenceable(40) %98, i1 noundef zeroext %100)
  %101 = load ptr, ptr %9, align 8
  %102 = load ptr, ptr %10, align 8
  %103 = load i8, ptr %18, align 1, !range !8, !noundef !9
  %104 = trunc i8 %103 to i1
  call void @_ZN3p2t8Triangle20SetConstrainedEdgeCWERKNS_5PointEb(ptr noundef nonnull align 8 dereferenceable(57) %101, ptr noundef nonnull align 8 dereferenceable(40) %102, i1 noundef zeroext %104)
  %105 = load ptr, ptr %7, align 8
  call void @_ZN3p2t8Triangle14ClearNeighborsEv(ptr noundef nonnull align 8 dereferenceable(57) %105)
  %106 = load ptr, ptr %9, align 8
  call void @_ZN3p2t8Triangle14ClearNeighborsEv(ptr noundef nonnull align 8 dereferenceable(57) %106)
  %107 = load ptr, ptr %11, align 8
  %108 = icmp ne ptr %107, null
  br i1 %108, label %109, label %112

109:                                              ; preds = %5
  %110 = load ptr, ptr %9, align 8
  %111 = load ptr, ptr %11, align 8
  call void @_ZN3p2t8Triangle12MarkNeighborERS0_(ptr noundef nonnull align 8 dereferenceable(57) %110, ptr noundef nonnull align 8 dereferenceable(57) %111)
  br label %112

112:                                              ; preds = %109, %5
  %113 = load ptr, ptr %12, align 8
  %114 = icmp ne ptr %113, null
  br i1 %114, label %115, label %118

115:                                              ; preds = %112
  %116 = load ptr, ptr %7, align 8
  %117 = load ptr, ptr %12, align 8
  call void @_ZN3p2t8Triangle12MarkNeighborERS0_(ptr noundef nonnull align 8 dereferenceable(57) %116, ptr noundef nonnull align 8 dereferenceable(57) %117)
  br label %118

118:                                              ; preds = %115, %112
  %119 = load ptr, ptr %13, align 8
  %120 = icmp ne ptr %119, null
  br i1 %120, label %121, label %124

121:                                              ; preds = %118
  %122 = load ptr, ptr %7, align 8
  %123 = load ptr, ptr %13, align 8
  call void @_ZN3p2t8Triangle12MarkNeighborERS0_(ptr noundef nonnull align 8 dereferenceable(57) %122, ptr noundef nonnull align 8 dereferenceable(57) %123)
  br label %124

124:                                              ; preds = %121, %118
  %125 = load ptr, ptr %14, align 8
  %126 = icmp ne ptr %125, null
  br i1 %126, label %127, label %130

127:                                              ; preds = %124
  %128 = load ptr, ptr %9, align 8
  %129 = load ptr, ptr %14, align 8
  call void @_ZN3p2t8Triangle12MarkNeighborERS0_(ptr noundef nonnull align 8 dereferenceable(57) %128, ptr noundef nonnull align 8 dereferenceable(57) %129)
  br label %130

130:                                              ; preds = %127, %124
  %131 = load ptr, ptr %7, align 8
  %132 = load ptr, ptr %9, align 8
  call void @_ZN3p2t8Triangle12MarkNeighborERS0_(ptr noundef nonnull align 8 dereferenceable(57) %131, ptr noundef nonnull align 8 dereferenceable(57) %132)
  call void @llvm.lifetime.end.p0(i64 1, ptr %22) #14
  call void @llvm.lifetime.end.p0(i64 1, ptr %21) #14
  call void @llvm.lifetime.end.p0(i64 1, ptr %20) #14
  call void @llvm.lifetime.end.p0(i64 1, ptr %19) #14
  call void @llvm.lifetime.end.p0(i64 1, ptr %18) #14
  call void @llvm.lifetime.end.p0(i64 1, ptr %17) #14
  call void @llvm.lifetime.end.p0(i64 1, ptr %16) #14
  call void @llvm.lifetime.end.p0(i64 1, ptr %15) #14
  call void @llvm.lifetime.end.p0(i64 8, ptr %14) #14
  call void @llvm.lifetime.end.p0(i64 8, ptr %13) #14
  call void @llvm.lifetime.end.p0(i64 8, ptr %12) #14
  call void @llvm.lifetime.end.p0(i64 8, ptr %11) #14
  ret void
}