; Function Attrs: mustprogress uwtable
define hidden void @_ZNK3p2t5Sweep18RotateTrianglePairERNS_8TriangleERNS_5PointES2_S4_(ptr nonnull readnone align 8 captures(none) %0, ptr noundef nonnull align 8 dereferenceable(57) %1, ptr noundef nonnull align 8 dereferenceable(40) %2, ptr noundef nonnull align 8 dereferenceable(57) %3, ptr noundef nonnull align 8 dereferenceable(40) %4) local_unnamed_addr #2 align 2 {
  %6 = tail call noundef ptr @_ZN3p2t8Triangle11NeighborCCWERKNS_5PointE(ptr noundef nonnull align 8 dereferenceable(57) %1, ptr noundef nonnull align 8 dereferenceable(40) %2)
  %7 = tail call noundef ptr @_ZN3p2t8Triangle10NeighborCWERKNS_5PointE(ptr noundef nonnull align 8 dereferenceable(57) %1, ptr noundef nonnull align 8 dereferenceable(40) %2)
  %8 = tail call noundef ptr @_ZN3p2t8Triangle11NeighborCCWERKNS_5PointE(ptr noundef nonnull align 8 dereferenceable(57) %3, ptr noundef nonnull align 8 dereferenceable(40) %4)
  %9 = tail call noundef ptr @_ZN3p2t8Triangle10NeighborCWERKNS_5PointE(ptr noundef nonnull align 8 dereferenceable(57) %3, ptr noundef nonnull align 8 dereferenceable(40) %4)
  %10 = tail call noundef zeroext i1 @_ZN3p2t8Triangle21GetConstrainedEdgeCCWERKNS_5PointE(ptr noundef nonnull align 8 dereferenceable(57) %1, ptr noundef nonnull align 8 dereferenceable(40) %2)
  %11 = tail call noundef zeroext i1 @_ZN3p2t8Triangle20GetConstrainedEdgeCWERKNS_5PointE(ptr noundef nonnull align 8 dereferenceable(57) %1, ptr noundef nonnull align 8 dereferenceable(40) %2)
  %12 = tail call noundef zeroext i1 @_ZN3p2t8Triangle21GetConstrainedEdgeCCWERKNS_5PointE(ptr noundef nonnull align 8 dereferenceable(57) %3, ptr noundef nonnull align 8 dereferenceable(40) %4)
  %13 = tail call noundef zeroext i1 @_ZN3p2t8Triangle20GetConstrainedEdgeCWERKNS_5PointE(ptr noundef nonnull align 8 dereferenceable(57) %3, ptr noundef nonnull align 8 dereferenceable(40) %4)
  %14 = tail call noundef zeroext i1 @_ZN3p2t8Triangle17GetDelunayEdgeCCWERKNS_5PointE(ptr noundef nonnull align 8 dereferenceable(57) %1, ptr noundef nonnull align 8 dereferenceable(40) %2)
  %15 = tail call noundef zeroext i1 @_ZN3p2t8Triangle16GetDelunayEdgeCWERKNS_5PointE(ptr noundef nonnull align 8 dereferenceable(57) %1, ptr noundef nonnull align 8 dereferenceable(40) %2)
  %16 = tail call noundef zeroext i1 @_ZN3p2t8Triangle17GetDelunayEdgeCCWERKNS_5PointE(ptr noundef nonnull align 8 dereferenceable(57) %3, ptr noundef nonnull align 8 dereferenceable(40) %4)
  %17 = tail call noundef zeroext i1 @_ZN3p2t8Triangle16GetDelunayEdgeCWERKNS_5PointE(ptr noundef nonnull align 8 dereferenceable(57) %3, ptr noundef nonnull align 8 dereferenceable(40) %4)
  tail call void @_ZN3p2t8Triangle8LegalizeERNS_5PointES2_(ptr noundef nonnull align 8 dereferenceable(57) %1, ptr noundef nonnull align 8 dereferenceable(40) %2, ptr noundef nonnull align 8 dereferenceable(40) %4)
  tail call void @_ZN3p2t8Triangle8LegalizeERNS_5PointES2_(ptr noundef nonnull align 8 dereferenceable(57) %3, ptr noundef nonnull align 8 dereferenceable(40) %4, ptr noundef nonnull align 8 dereferenceable(40) %2)
  tail call void @_ZN3p2t8Triangle17SetDelunayEdgeCCWERKNS_5PointEb(ptr noundef nonnull align 8 dereferenceable(57) %3, ptr noundef nonnull align 8 dereferenceable(40) %2, i1 noundef zeroext %14)
  tail call void @_ZN3p2t8Triangle16SetDelunayEdgeCWERKNS_5PointEb(ptr noundef nonnull align 8 dereferenceable(57) %1, ptr noundef nonnull align 8 dereferenceable(40) %2, i1 noundef zeroext %15)
  tail call void @_ZN3p2t8Triangle17SetDelunayEdgeCCWERKNS_5PointEb(ptr noundef nonnull align 8 dereferenceable(57) %1, ptr noundef nonnull align 8 dereferenceable(40) %4, i1 noundef zeroext %16)
  tail call void @_ZN3p2t8Triangle16SetDelunayEdgeCWERKNS_5PointEb(ptr noundef nonnull align 8 dereferenceable(57) %3, ptr noundef nonnull align 8 dereferenceable(40) %4, i1 noundef zeroext %17)
  tail call void @_ZN3p2t8Triangle21SetConstrainedEdgeCCWERKNS_5PointEb(ptr noundef nonnull align 8 dereferenceable(57) %3, ptr noundef nonnull align 8 dereferenceable(40) %2, i1 noundef zeroext %10)
  tail call void @_ZN3p2t8Triangle20SetConstrainedEdgeCWERKNS_5PointEb(ptr noundef nonnull align 8 dereferenceable(57) %1, ptr noundef nonnull align 8 dereferenceable(40) %2, i1 noundef zeroext %11)
  tail call void @_ZN3p2t8Triangle21SetConstrainedEdgeCCWERKNS_5PointEb(ptr noundef nonnull align 8 dereferenceable(57) %1, ptr noundef nonnull align 8 dereferenceable(40) %4, i1 noundef zeroext %12)
  tail call void @_ZN3p2t8Triangle20SetConstrainedEdgeCWERKNS_5PointEb(ptr noundef nonnull align 8 dereferenceable(57) %3, ptr noundef nonnull align 8 dereferenceable(40) %4, i1 noundef zeroext %13)
  tail call void @_ZN3p2t8Triangle14ClearNeighborsEv(ptr noundef nonnull align 8 dereferenceable(57) %1)
  tail call void @_ZN3p2t8Triangle14ClearNeighborsEv(ptr noundef nonnull align 8 dereferenceable(57) %3)
  %.not = icmp eq ptr %6, null
  br i1 %.not, label %19, label %18

18:                                               ; preds = %5
  tail call void @_ZN3p2t8Triangle12MarkNeighborERS0_(ptr noundef nonnull align 8 dereferenceable(57) %3, ptr noundef nonnull align 8 dereferenceable(57) %6)
  br label %19

19:                                               ; preds = %18, %5
  %.not72 = icmp eq ptr %7, null
  br i1 %.not72, label %21, label %20

20:                                               ; preds = %19
  tail call void @_ZN3p2t8Triangle12MarkNeighborERS0_(ptr noundef nonnull align 8 dereferenceable(57) %1, ptr noundef nonnull align 8 dereferenceable(57) %7)
  br label %21

21:                                               ; preds = %20, %19
  %.not73 = icmp eq ptr %8, null
  br i1 %.not73, label %23, label %22

22:                                               ; preds = %21
  tail call void @_ZN3p2t8Triangle12MarkNeighborERS0_(ptr noundef nonnull align 8 dereferenceable(57) %1, ptr noundef nonnull align 8 dereferenceable(57) %8)
  br label %23

23:                                               ; preds = %22, %21
  %.not74 = icmp eq ptr %9, null
  br i1 %.not74, label %25, label %24

24:                                               ; preds = %23
  tail call void @_ZN3p2t8Triangle12MarkNeighborERS0_(ptr noundef nonnull align 8 dereferenceable(57) %3, ptr noundef nonnull align 8 dereferenceable(57) %9)
  br label %25

25:                                               ; preds = %24, %23
  tail call void @_ZN3p2t8Triangle12MarkNeighborERS0_(ptr noundef nonnull align 8 dereferenceable(57) %1, ptr noundef nonnull align 8 dereferenceable(57) %3)
  ret void
}